(dp0
S'show_imports'
p1
I0
sS'private_css'
p2
S'default'
p3
sS'prj_name'
p4
S'PyXMLSec'
p5
sS'docformat'
p6
S'plaintext'
p7
sS'inheritance'
p8
S'grouped'
p9
sS'help'
p10
NsS'modules'
p11
(S'/home/valos/projects/pyxmlsec/pyxmlsec/trunk/xmlsec.py'
p12
S'/home/valos/projects/pyxmlsec/pyxmlsec/trunk/xmlsec_strings.py'
p13
S'/home/valos/projects/pyxmlsec/xmlsec.py'
p14
S'/home/valos/projects/pyxmlsec/xmlsec_strings.py'
p15
tp16
sS'private'
p17
I0
sS'prj_url'
p18
S'http://pyxmlsec.labs.libre-entreprise.org'
p19
sS'frames'
p20
I1
sS'css'
p21
S'default'
p22
sS'outdir'
p23
S'/home/valos/projects/pyxmlsec/pyxmlsec/trunk/docs/html'
p24
s.