(dp0
S'show_imports'
p1
I0
sS'private_css'
p2
S'default'
p3
sS'prj_name'
p4
S'PyXMLSec'
p5
sS'docformat'
p6
S'plaintext'
p7
sS'inheritance'
p8
S'grouped'
p9
sS'help'
p10
NsS'modules'
p11
(S'/home/valos/projects/pyxmlsec/xmlsec.py'
p12
S'/home/valos/projects/pyxmlsec/xmlsec_strings.py'
p13
tp14
sS'private'
p15
I0
sS'prj_url'
p16
S'http://pyxmlsec.labs.libre-entreprise.org'
p17
sS'frames'
p18
I1
sS'css'
p19
S'default'
p20
sS'outdir'
p21
S'/home/valos/projects/pyxmlsec/docs/html'
p22
s.